target datalayout = "e-m:e-p270:32:32-p271:32:32-p272:64:64-i64:64-i128:128-f80:128-n8:16:32:64-S128"
target triple = "x86_64-pc-linux-gnu"

%class.PhaseRegAlloc = type { ptr, %class.Phase, ptr, i32, %class.VectorSet, ptr, i32, i32, ptr }
%class.Phase = type { i32, ptr }
%class.VectorSet = type { i32, ptr, i32, ptr }
%class.PhaseChaitin = type <{ %class.PhaseRegAlloc, i32, i32, ptr, ptr, %class.VectorSet, %class.VectorSet, i32, i32, i32, i32, i32, [4 x i8], ptr, double, %class.LiveRangeMap, i8, [3 x i8], %"class.PhaseChaitin::Pressure", %"class.PhaseChaitin::Pressure", %"class.PhaseChaitin::Pressure", %"class.PhaseChaitin::Pressure", [4 x i8] }>
%class.LiveRangeMap = type { i32, %class.GrowableArray, %class.GrowableArray }
%class.GrowableArray = type { %class.GrowableArrayWithAllocator, %class.GrowableArrayMetadata }
%class.GrowableArrayWithAllocator = type { %class.GrowableArrayView }
%class.GrowableArrayView = type { %class.GrowableArrayBase, ptr }
%class.GrowableArrayBase = type { i32, i32 }
%class.GrowableArrayMetadata = type { i64 }
%"class.PhaseChaitin::Pressure" = type { i32, i32, i32, i32, i32 }
%class.Node = type <{ ptr, ptr, ptr, i32, i32, i32, i32, i32, i32, i32, [4 x i8] }>
%class.LRG = type { double, double, double, ptr, i32, i32, i32, i32, i32, i32, %class.RegMask, i32, i16, i32, i16, i16 }
%class.RegMask = type { %union.anon, i32, i32 }
%union.anon = type { [11 x i64] }
%class.PhaseIFG = type { %class.Phase, ptr, i8, ptr, i32, ptr, ptr }

@g_assert_poison = external global ptr, align 8
@.str = private unnamed_addr constant [36 x i8] c"src/hotspot/share/opto/postaloc.cpp\00", align 1
@.str.4 = private unnamed_addr constant [33 x i8] c"guarantee(def != nullptr) failed\00", align 1
@.str.5 = private unnamed_addr constant [29 x i8] c"must not resurrect dead copy\00", align 1

; Function Attrs: mustprogress nounwind uwtable
define linkonce_odr hidden noundef nonnull align 8 dereferenceable(168) ptr @_ZNK8PhaseIFG4lrgsEj(ptr noundef nonnull align 8 dereferenceable(64) %0, i32 noundef %1) #1 comdat align 2 {
  %3 = alloca ptr, align 8
  %4 = alloca i32, align 4
  store ptr %0, ptr %3, align 8
  store i32 %1, ptr %4, align 4
  %5 = load ptr, ptr %3, align 8
  %6 = getelementptr inbounds %class.PhaseIFG, ptr %5, i32 0, i32 3
  %7 = load ptr, ptr %6, align 8
  %8 = load i32, ptr %4, align 4
  %9 = zext i32 %8 to i64
  %10 = getelementptr inbounds %class.LRG, ptr %7, i64 %9
  ret ptr %10
}

; Function Attrs: mustprogress nounwind uwtable
define linkonce_odr hidden noundef nonnull align 4 dereferenceable(4) ptr @_ZNK17GrowableArrayViewIjE2atEi(ptr noundef nonnull align 8 dereferenceable(16) %0, i32 noundef %1) #1 comdat align 2 {
  %3 = alloca ptr, align 8
  %4 = alloca i32, align 4
  store ptr %0, ptr %3, align 8
  store i32 %1, ptr %4, align 4
  %5 = load ptr, ptr %3, align 8
  %6 = getelementptr inbounds %class.GrowableArrayView, ptr %5, i32 0, i32 1
  %7 = load ptr, ptr %6, align 8
  %8 = load i32, ptr %4, align 4
  %9 = sext i32 %8 to i64
  %10 = getelementptr inbounds i32, ptr %7, i64 %9
  ret ptr %10
}

; Function Attrs: mustprogress nounwind uwtable
define linkonce_odr hidden noundef zeroext i1 @_ZNK4Node6is_PhiEv(ptr noundef nonnull align 8 dereferenceable(52) %0) #1 comdat align 2 {
  %2 = alloca ptr, align 8
  store ptr %0, ptr %2, align 8
  %3 = load ptr, ptr %2, align 8
  %4 = getelementptr inbounds %class.Node, ptr %3, i32 0, i32 8
  %5 = load i32, ptr %4, align 4
  %6 = and i32 %5, 15
  %7 = icmp eq i32 %6, 12
  ret i1 %7
}

; Function Attrs: mustprogress nounwind uwtable
define linkonce_odr hidden noundef i32 @_ZNK4Node7is_CopyEv(ptr noundef nonnull align 8 dereferenceable(52) %0) #1 comdat align 2 {
  %2 = alloca ptr, align 8
  store ptr %0, ptr %2, align 8
  %3 = load ptr, ptr %2, align 8
  %4 = getelementptr inbounds %class.Node, ptr %3, i32 0, i32 9
  %5 = load i32, ptr %4, align 8
  %6 = and i32 %5, 1
  ret i32 %6
}

; Function Attrs: mustprogress nounwind uwtable
define linkonce_odr hidden noundef i32 @_ZNK3LRG3regEv(ptr noundef nonnull align 8 dereferenceable(168) %0) #1 comdat align 2 {
  %2 = alloca ptr, align 8
  store ptr %0, ptr %2, align 8
  %3 = load ptr, ptr %2, align 8
  %4 = getelementptr inbounds %class.LRG, ptr %3, i32 0, i32 8
  %5 = load i32, ptr %4, align 8
  ret i32 %5
}

; Function Attrs: mustprogress nounwind uwtable
define linkonce_odr hidden noundef nonnull align 8 dereferenceable(168) ptr @_ZNK12PhaseChaitin4lrgsEj(ptr noundef nonnull align 8 dereferenceable(364) %0, i32 noundef %1) #1 comdat align 2 {
  %3 = alloca ptr, align 8
  %4 = alloca i32, align 4
  store ptr %0, ptr %3, align 8
  store i32 %1, ptr %4, align 4
  %5 = load ptr, ptr %3, align 8
  %6 = getelementptr inbounds %class.PhaseChaitin, ptr %5, i32 0, i32 4
  %7 = load ptr, ptr %6, align 8
  %8 = load i32, ptr %4, align 4
  %9 = call noundef nonnull align 8 dereferenceable(168) ptr @_ZNK8PhaseIFG4lrgsEj(ptr noundef nonnull align 8 dereferenceable(64) %7, i32 noundef %8)
  ret ptr %9
}

; Function Attrs: mustprogress nounwind uwtable
define linkonce_odr hidden noundef i32 @_ZNK12LiveRangeMap13live_range_idEPK4Node(ptr noundef nonnull align 8 dereferenceable(56) %0, ptr noundef %1) #1 comdat align 2 {
  %3 = alloca ptr, align 8
  %4 = alloca ptr, align 8
  store ptr %0, ptr %3, align 8
  store ptr %1, ptr %4, align 8
  %5 = load ptr, ptr %3, align 8
  %6 = getelementptr inbounds %class.LiveRangeMap, ptr %5, i32 0, i32 2
  %7 = load ptr, ptr %4, align 8
  %8 = getelementptr inbounds %class.Node, ptr %7, i32 0, i32 7
  %9 = load i32, ptr %8, align 8
  %10 = call noundef nonnull align 4 dereferenceable(4) ptr @_ZNK17GrowableArrayViewIjE2atEi(ptr noundef nonnull align 8 dereferenceable(16) %6, i32 noundef %9)
  %11 = load i32, ptr %10, align 4
  ret i32 %11
}

; Function Attrs: mustprogress nounwind uwtable
define linkonce_odr hidden noundef zeroext i1 @_ZNK4Node8is_StartEv(ptr noundef nonnull align 8 dereferenceable(52) %0) #1 comdat align 2 {
  %2 = alloca ptr, align 8
  store ptr %0, ptr %2, align 8
  %3 = load ptr, ptr %2, align 8
  %4 = getelementptr inbounds %class.Node, ptr %3, i32 0, i32 8
  %5 = load i32, ptr %4, align 4
  %6 = and i32 %5, 15
  %7 = icmp eq i32 %6, 9
  ret i1 %7
}

; Function Attrs: mustprogress nounwind uwtable
define linkonce_odr hidden noundef ptr @_ZNK4Node2inEj(ptr noundef nonnull align 8 dereferenceable(52) %0, i32 noundef %1) #1 comdat align 2 {
  %3 = alloca ptr, align 8
  %4 = alloca i32, align 4
  store ptr %0, ptr %3, align 8
  store i32 %1, ptr %4, align 4
  %5 = load ptr, ptr %3, align 8
  %6 = getelementptr inbounds %class.Node, ptr %5, i32 0, i32 1
  %7 = load ptr, ptr %6, align 8
  %8 = load i32, ptr %4, align 4
  %9 = zext i32 %8 to i64
  %10 = getelementptr inbounds ptr, ptr %7, i64 %9
  %11 = load ptr, ptr %10, align 8
  ret ptr %11
}

; Function Attrs: mustprogress nounwind uwtable
define linkonce_odr hidden noundef zeroext i1 @_ZNK4Node7is_ProjEv(ptr noundef nonnull align 8 dereferenceable(52) %0) #1 comdat align 2 {
  %2 = alloca ptr, align 8
  store ptr %0, ptr %2, align 8
  %3 = load ptr, ptr %2, align 8
  %4 = getelementptr inbounds %class.Node, ptr %3, i32 0, i32 8
  %5 = load i32, ptr %4, align 4
  %6 = and i32 %5, 15
  %7 = icmp eq i32 %6, 8
  ret i1 %7
}

; Function Attrs: mustprogress nounwind uwtable
define hidden noundef zeroext i1 @_ZNK12PhaseChaitin21may_be_copy_of_calleeEP4Node(ptr noundef nonnull align 8 dereferenceable(364) %0, ptr noundef %1) #1 align 2 {
  %3 = alloca i1, align 1
  %4 = alloca ptr, align 8
  %5 = alloca ptr, align 8
  %6 = alloca i32, align 4
  %7 = alloca i32, align 4
  store ptr %0, ptr %4, align 8
  store ptr %1, ptr %5, align 8
  %8 = load ptr, ptr %4, align 8
  %9 = call noundef i32 @_ZN7Matcher25number_of_saved_registersEv()
  %10 = icmp eq i32 %9, 0
  br i1 %10, label %11, label %12

11:                                               ; preds = %2
  store i1 false, ptr %3, align 1
  br label %64

12:                                               ; preds = %2
  store i32 60, ptr %6, align 4
  store i32 0, ptr %7, align 4
  br label %13

13:                                               ; preds = %58, %12
  %14 = load i32, ptr %7, align 4
  %15 = icmp slt i32 %14, 60
  br i1 %15, label %16, label %61

16:                                               ; preds = %13
  %17 = load ptr, ptr %5, align 8
  %18 = call noundef zeroext i1 @_ZNK4Node7is_ProjEv(ptr noundef nonnull align 8 dereferenceable(52) %17)
  br i1 %18, label %19, label %33

19:                                               ; preds = %16
  %20 = load ptr, ptr %5, align 8
  %21 = call noundef ptr @_ZNK4Node2inEj(ptr noundef nonnull align 8 dereferenceable(52) %20, i32 noundef 0)
  %22 = call noundef zeroext i1 @_ZNK4Node8is_StartEv(ptr noundef nonnull align 8 dereferenceable(52) %21)
  br i1 %22, label %23, label %33

23:                                               ; preds = %19
  %24 = getelementptr inbounds %class.PhaseRegAlloc, ptr %8, i32 0, i32 8
  %25 = load ptr, ptr %24, align 8
  %26 = getelementptr inbounds %class.PhaseChaitin, ptr %8, i32 0, i32 15
  %27 = load ptr, ptr %5, align 8
  %28 = call noundef i32 @_ZNK12LiveRangeMap13live_range_idEPK4Node(ptr noundef nonnull align 8 dereferenceable(56) %26, ptr noundef %27)
  %29 = call noundef nonnull align 8 dereferenceable(168) ptr @_ZNK12PhaseChaitin4lrgsEj(ptr noundef nonnull align 8 dereferenceable(364) %8, i32 noundef %28)
  %30 = call noundef i32 @_ZNK3LRG3regEv(ptr noundef nonnull align 8 dereferenceable(168) %29)
  %31 = call noundef zeroext i1 @_ZN7Matcher16is_save_on_entryEi(ptr noundef nonnull align 8 dereferenceable(1008) %25, i32 noundef %30)
  br i1 %31, label %32, label %33

32:                                               ; preds = %23
  store i1 true, ptr %3, align 1
  br label %64

33:                                               ; preds = %23, %19, %16
  %34 = load ptr, ptr %5, align 8
  %35 = call noundef i32 @_ZNK4Node7is_CopyEv(ptr noundef nonnull align 8 dereferenceable(52) %34)
  %36 = icmp ne i32 %35, 0
  br i1 %36, label %37, label %42

37:                                               ; preds = %33
  %38 = load ptr, ptr %5, align 8
  %39 = load ptr, ptr %5, align 8
  %40 = call noundef i32 @_ZNK4Node7is_CopyEv(ptr noundef nonnull align 8 dereferenceable(52) %39)
  %41 = call noundef ptr @_ZNK4Node2inEj(ptr noundef nonnull align 8 dereferenceable(52) %38, i32 noundef %40)
  store ptr %41, ptr %5, align 8
  br label %50

42:                                               ; preds = %33
  %43 = load ptr, ptr %5, align 8
  %44 = call noundef zeroext i1 @_ZNK4Node6is_PhiEv(ptr noundef nonnull align 8 dereferenceable(52) %43)
  br i1 %44, label %45, label %48

45:                                               ; preds = %42
  %46 = load ptr, ptr %5, align 8
  %47 = call noundef ptr @_ZNK4Node2inEj(ptr noundef nonnull align 8 dereferenceable(52) %46, i32 noundef 1)
  store ptr %47, ptr %5, align 8
  br label %49

48:                                               ; preds = %42
  br label %61

49:                                               ; preds = %45
  br label %50

50:                                               ; preds = %49, %37
  br label %51

51:                                               ; preds = %50
  %52 = load ptr, ptr %5, align 8
  %53 = icmp ne ptr %52, null
  br i1 %53, label %56, label %54

54:                                               ; preds = %51
  %55 = load ptr, ptr @g_assert_poison, align 8
  store i8 88, ptr %55, align 1
  call void (ptr, i32, ptr, ptr, ...) @_Z15report_vm_errorPKciS0_S0_z(ptr noundef @.str, i32 noundef 68, ptr noundef @.str.4, ptr noundef @.str.5) #8
  unreachable

56:                                               ; preds = %51
  br label %57

57:                                               ; preds = %56
  br label %58

58:                                               ; preds = %57
  %59 = load i32, ptr %7, align 4
  %60 = add nsw i32 %59, 1
  store i32 %60, ptr %7, align 4
  br label %13, !llvm.loop !6

61:                                               ; preds = %48, %13
  %62 = load i32, ptr %7, align 4
  %63 = icmp eq i32 %62, 60
  store i1 %63, ptr %3, align 1
  br label %64

64:                                               ; preds = %61, %32, %11
  %65 = load i1, ptr %3, align 1
  ret i1 %65
}