; Function Attrs: mustprogress nounwind uwtable
define hidden noundef zeroext i1 @_ZNK12PhaseChaitin21may_be_copy_of_calleeEP4Node(ptr nocapture noundef nonnull readonly align 8 dereferenceable(364) %0, ptr nocapture noundef readonly %1) local_unnamed_addr #0 align 2 {
  %3 = tail call noundef i32 @_ZN7Matcher25number_of_saved_registersEv() #9
  %4 = icmp eq i32 %3, 0
  br i1 %4, label %.loopexit, label %.preheader

.preheader:                                       ; preds = %2
  %5 = getelementptr inbounds i8, ptr %0, i64 88
  %6 = getelementptr inbounds i8, ptr %0, i64 264
  %7 = getelementptr inbounds i8, ptr %0, i64 112
  br label %8

8:                                                ; preds = %.preheader, %56
  %.019 = phi i32 [ 0, %.preheader ], [ %57, %56 ]
  %.01418 = phi ptr [ %1, %.preheader ], [ %.1, %56 ]
  %9 = getelementptr inbounds i8, ptr %.01418, i64 44
  %10 = load i32, ptr %9, align 4
  %11 = and i32 %10, 15
  %12 = icmp eq i32 %11, 8
  br i1 %12, label %13, label %36

13:                                               ; preds = %8
  %14 = getelementptr inbounds i8, ptr %.01418, i64 8
  %15 = load ptr, ptr %14, align 8
  %16 = load ptr, ptr %15, align 8
  %17 = getelementptr inbounds i8, ptr %16, i64 44
  %18 = load i32, ptr %17, align 4
  %19 = and i32 %18, 15
  %20 = icmp eq i32 %19, 9
  br i1 %20, label %21, label %36

21:                                               ; preds = %13
  %22 = load ptr, ptr %5, align 8
  %23 = getelementptr inbounds i8, ptr %.01418, i64 40
  %24 = load i32, ptr %23, align 8
  %25 = load ptr, ptr %6, align 8
  %26 = sext i32 %24 to i64
  %27 = getelementptr inbounds i32, ptr %25, i64 %26
  %28 = load i32, ptr %27, align 4
  %29 = load ptr, ptr %7, align 8
  %30 = getelementptr inbounds i8, ptr %29, i64 32
  %31 = load ptr, ptr %30, align 8
  %32 = zext i32 %28 to i64
  %33 = getelementptr inbounds %class.LRG, ptr %31, i64 %32, i32 8
  %34 = load i32, ptr %33, align 8
  %35 = tail call noundef zeroext i1 @_ZN7Matcher16is_save_on_entryEi(ptr noundef nonnull align 8 dereferenceable(1008) %22, i32 noundef %34) #9
  br i1 %35, label %.loopexit, label %36

36:                                               ; preds = %21, %13, %8
  %37 = getelementptr inbounds i8, ptr %.01418, i64 48
  %38 = load i32, ptr %37, align 8
  %39 = and i32 %38, 1
  %.not = icmp eq i32 %39, 0
  br i1 %.not, label %45, label %40

40:                                               ; preds = %36
  %41 = getelementptr inbounds i8, ptr %.01418, i64 8
  %42 = load ptr, ptr %41, align 8
  %43 = zext nneg i32 %39 to i64
  %44 = getelementptr inbounds ptr, ptr %42, i64 %43
  br label %53

45:                                               ; preds = %36
  %46 = load i32, ptr %9, align 4
  %47 = and i32 %46, 15
  %48 = icmp eq i32 %47, 12
  br i1 %48, label %49, label %58

49:                                               ; preds = %45
  %50 = getelementptr inbounds i8, ptr %.01418, i64 8
  %51 = load ptr, ptr %50, align 8
  %52 = getelementptr inbounds i8, ptr %51, i64 8
  br label %53

53:                                               ; preds = %40, %49
  %.1.in = phi ptr [ %44, %40 ], [ %52, %49 ]
  %.1 = load ptr, ptr %.1.in, align 8
  %.not15 = icmp eq ptr %.1, null
  br i1 %.not15, label %54, label %56

54:                                               ; preds = %53
  %55 = load ptr, ptr @g_assert_poison, align 8
  store i8 88, ptr %55, align 1
  tail call void (ptr, i32, ptr, ptr, ...) @_Z15report_vm_errorPKciS0_S0_z(ptr noundef nonnull @.str, i32 noundef 68, ptr noundef nonnull @.str.4, ptr noundef nonnull @.str.5) #10
  unreachable

56:                                               ; preds = %53
  %57 = add nuw nsw i32 %.019, 1
  %exitcond.not = icmp eq i32 %57, 60
  br i1 %exitcond.not, label %58, label %8, !llvm.loop !6

58:                                               ; preds = %45, %56
  %.0.lcssa = phi i32 [ %.019, %45 ], [ 60, %56 ]
  %59 = icmp eq i32 %.0.lcssa, 60
  br label %.loopexit

.loopexit:                                        ; preds = %21, %2, %58
  %.013 = phi i1 [ %59, %58 ], [ false, %2 ], [ true, %21 ]
  ret i1 %.013
}